target datalayout = "e-m:e-p270:32:32-p271:32:32-p272:64:64-i64:64-i128:128-f80:128-n8:16:32:64-S128"
target triple = "x86_64-pc-linux-gnu"

%"class.pxrInternal_v0_24__pxrReserved__::VtArray" = type { %"class.pxrInternal_v0_24__pxrReserved__::Vt_ArrayBase", ptr }
%"class.pxrInternal_v0_24__pxrReserved__::Vt_ArrayBase" = type { %"struct.pxrInternal_v0_24__pxrReserved__::Vt_ShapeData", ptr }
%"struct.pxrInternal_v0_24__pxrReserved__::Vt_ShapeData" = type { i64, [3 x i32] }
%"class.pxrInternal_v0_24__pxrReserved__::PxOsdMeshTopology" = type <{ %"class.pxrInternal_v0_24__pxrReserved__::TfToken", %"class.pxrInternal_v0_24__pxrReserved__::TfToken", %"class.pxrInternal_v0_24__pxrReserved__::VtArray", %"class.pxrInternal_v0_24__pxrReserved__::VtArray", %"class.pxrInternal_v0_24__pxrReserved__::VtArray", %"class.pxrInternal_v0_24__pxrReserved__::PxOsdSubdivTags", %"struct.pxrInternal_v0_24__pxrReserved__::PxOsdMeshTopology::_Validated", [7 x i8] }>
%"class.pxrInternal_v0_24__pxrReserved__::TfToken" = type { %"class.pxrInternal_v0_24__pxrReserved__::TfPointerAndBits" }
%"class.pxrInternal_v0_24__pxrReserved__::TfPointerAndBits" = type { ptr }
%"class.pxrInternal_v0_24__pxrReserved__::PxOsdSubdivTags" = type { %"class.pxrInternal_v0_24__pxrReserved__::TfToken", %"class.pxrInternal_v0_24__pxrReserved__::TfToken", %"class.pxrInternal_v0_24__pxrReserved__::TfToken", %"class.pxrInternal_v0_24__pxrReserved__::TfToken", %"class.pxrInternal_v0_24__pxrReserved__::VtArray", %"class.pxrInternal_v0_24__pxrReserved__::VtArray", %"class.pxrInternal_v0_24__pxrReserved__::VtArray.0", %"class.pxrInternal_v0_24__pxrReserved__::VtArray", %"class.pxrInternal_v0_24__pxrReserved__::VtArray.0" }
%"class.pxrInternal_v0_24__pxrReserved__::VtArray.0" = type { %"class.pxrInternal_v0_24__pxrReserved__::Vt_ArrayBase", ptr }
%"struct.pxrInternal_v0_24__pxrReserved__::PxOsdMeshTopology::_Validated" = type { %"struct.std::atomic" }
%"struct.std::atomic" = type { %"struct.std::__atomic_base" }
%"struct.std::__atomic_base" = type { i8 }
%class.anon = type { i8 }

@__dso_handle = external hidden global i8
@_ZZN32pxrInternal_v0_24__pxrReserved__32UsdImagingGetCapsuleMeshTopologyEvE11capsuleTopo = internal global %"class.pxrInternal_v0_24__pxrReserved__::PxOsdMeshTopology" zeroinitializer, align 8
@_ZGVZN32pxrInternal_v0_24__pxrReserved__32UsdImagingGetCapsuleMeshTopologyEvE11capsuleTopo = internal global i64 0, align 8

; Function Attrs: mustprogress uwtable
define noundef nonnull align 8 dereferenceable(369) ptr @_ZN32pxrInternal_v0_24__pxrReserved__32UsdImagingGetCapsuleMeshTopologyEv() #0 personality ptr @__gxx_personality_v0 {
  %1 = alloca %class.anon, align 1
  %2 = alloca ptr, align 8
  %3 = alloca i32, align 4
  %4 = load atomic i8, ptr @_ZGVZN32pxrInternal_v0_24__pxrReserved__32UsdImagingGetCapsuleMeshTopologyEvE11capsuleTopo acquire, align 8
  %5 = icmp eq i8 %4, 0
  br i1 %5, label %6, label %12, !prof !4

6:                                                ; preds = %0
  %7 = call i32 @__cxa_guard_acquire(ptr @_ZGVZN32pxrInternal_v0_24__pxrReserved__32UsdImagingGetCapsuleMeshTopologyEvE11capsuleTopo) #1
  %8 = icmp ne i32 %7, 0
  br i1 %8, label %9, label %12

9:                                                ; preds = %6
  invoke void @"_ZZN32pxrInternal_v0_24__pxrReserved__32UsdImagingGetCapsuleMeshTopologyEvENK3$_0clEv"(ptr dead_on_unwind writable sret(%"class.pxrInternal_v0_24__pxrReserved__::PxOsdMeshTopology") align 8 @_ZZN32pxrInternal_v0_24__pxrReserved__32UsdImagingGetCapsuleMeshTopologyEvE11capsuleTopo, ptr noundef nonnull align 1 dereferenceable(1) %1)
          to label %10 unwind label %13

10:                                               ; preds = %9
  %11 = call i32 @__cxa_atexit(ptr @_ZN32pxrInternal_v0_24__pxrReserved__17PxOsdMeshTopologyD2Ev, ptr @_ZZN32pxrInternal_v0_24__pxrReserved__32UsdImagingGetCapsuleMeshTopologyEvE11capsuleTopo, ptr @__dso_handle) #1
  call void @__cxa_guard_release(ptr @_ZGVZN32pxrInternal_v0_24__pxrReserved__32UsdImagingGetCapsuleMeshTopologyEvE11capsuleTopo) #1
  br label %12

12:                                               ; preds = %10, %6, %0
  ret ptr @_ZZN32pxrInternal_v0_24__pxrReserved__32UsdImagingGetCapsuleMeshTopologyEvE11capsuleTopo

13:                                               ; preds = %9
  %14 = landingpad { ptr, i32 }
          cleanup
  %15 = extractvalue { ptr, i32 } %14, 0
  store ptr %15, ptr %2, align 8
  %16 = extractvalue { ptr, i32 } %14, 1
  store i32 %16, ptr %3, align 4
  call void @__cxa_guard_abort(ptr @_ZGVZN32pxrInternal_v0_24__pxrReserved__32UsdImagingGetCapsuleMeshTopologyEvE11capsuleTopo) #1
  br label %17

17:                                               ; preds = %13
  %18 = load ptr, ptr %2, align 8
  %19 = load i32, ptr %3, align 4
  %20 = insertvalue { ptr, i32 } poison, ptr %18, 0
  %21 = insertvalue { ptr, i32 } %20, i32 %19, 1
  resume { ptr, i32 } %21
}